(lp0
(S'cppflags'
p1
ccopy_reg
_reconstructor
p2
(cino.utils
SpaceList
p3
c__builtin__
list
p4
(lp5
S'-mmcu=atmega328p'
p6
aS'-DF_CPU=16000000L'
p7
aS'-DARDUINO=106'
p8
aS'-I/usr/local/share/arduino/hardware/arduino/cores/arduino'
p9
aS'-ffunction-sections'
p10
aS'-fdata-sections'
p11
aS'-g'
p12
aS'-Os'
p13
aS'-w'
p14
aS'-I/usr/local/share/arduino/hardware/arduino/variants/standard'
p15
aS'-Ilib/keypad'
p16
aS'-Ilib/keypad/utility'
p17
aS'-Ilib/grove'
p18
aS'-I/usr/local/share/arduino/libraries/Wire'
p19
aS'-I/usr/local/share/arduino/libraries/Wire/utility'
p20
aS'-I/usr/local/share/arduino/hardware/arduino/cores/arduino'
p21
aS'-I/usr/local/share/arduino/hardware/arduino/cores/arduino/avr-libc'
p22
atp23
Rp24
tp25
a(S'cxx'
p26
S'/usr/local/share/arduino/hardware/tools/avr/bin/avr-g++'
p27
tp28
a(S'build_dir'
p29
S'.build/uno'
p30
tp31
a(S'avrdude'
p32
S'/usr/local/share/arduino/hardware/tools/avrdude'
p33
tp34
a(S'ar'
p35
S'/usr/local/share/arduino/hardware/tools/avr/bin/avr-ar'
p36
tp37
a(S'names'
p38
(dp39
S'cpp'
p40
S'%s.cpp'
p41
sS'obj'
p42
S'%s.o'
p43
sS'lib'
p44
S'lib%s.a'
p45
sS'deps'
p46
S'%s.d'
p47
stp48
a(S'ldflags'
p49
g2
(g3
g4
(lp50
g6
aS'-Wl,-Os'
p51
aS'-Wl,--gc-sections'
p52
atp53
Rp54
tp55
a(S'arduino_lib_version'
p56
g2
(cino.environment
Version
p57
c__builtin__
tuple
p58
(I1
I0
I6
tp59
tp60
Rp61
tp62
a(S'objcopy'
p63
S'/usr/local/share/arduino/hardware/tools/avr/bin/avr-objcopy'
p64
tp65
a(S'board_models'
p66
cino.environment
BoardModels
p67
((lp68
(lp69
S'uno'
p70
a(dp71
S'build'
p72
(dp73
S'core'
p74
S'arduino'
p75
sS'mcu'
p76
S'atmega328p'
p77
sS'f_cpu'
p78
S'16000000L'
p79
sS'variant'
p80
S'standard'
p81
ssS'bootloader'
p82
(dp83
S'extended_fuses'
p84
S'0x05'
p85
sS'high_fuses'
p86
S'0xde'
p87
sS'low_fuses'
p88
S'0xff'
p89
sS'lock_bits'
p90
S'0x0F'
p91
sS'file'
p92
S'optiboot_atmega328.hex'
p93
sS'path'
p94
S'optiboot'
p95
sS'unlock_bits'
p96
S'0x3F'
p97
ssS'upload'
p98
(dp99
S'protocol'
p100
S'arduino'
p101
sS'maximum_size'
p102
S'32256'
p103
sS'speed'
p104
S'115200'
p105
ssS'name'
p106
S'Arduino Uno'
p107
saa(lp108
S'atmega328'
p109
a(dp110
S'build'
p111
(dp112
S'core'
p113
S'arduino'
p114
sS'mcu'
p115
S'atmega328p'
p116
sS'f_cpu'
p117
S'16000000L'
p118
sS'variant'
p119
S'standard'
p120
ssS'bootloader'
p121
(dp122
S'extended_fuses'
p123
S'0x05'
p124
sS'high_fuses'
p125
S'0xDA'
p126
sS'low_fuses'
p127
S'0xFF'
p128
sS'lock_bits'
p129
S'0x0F'
p130
sS'file'
p131
S'ATmegaBOOT_168_atmega328.hex'
p132
sS'path'
p133
S'atmega'
p134
sS'unlock_bits'
p135
S'0x3F'
p136
ssS'upload'
p137
(dp138
S'protocol'
p139
S'arduino'
p140
sS'maximum_size'
p141
S'30720'
p142
sS'speed'
p143
S'57600'
p144
ssS'name'
p145
S'Arduino Duemilanove w/ ATmega328'
p146
saa(lp147
S'diecimila'
p148
a(dp149
S'build'
p150
(dp151
S'core'
p152
S'arduino'
p153
sS'mcu'
p154
S'atmega168'
p155
sS'f_cpu'
p156
S'16000000L'
p157
sS'variant'
p158
S'standard'
p159
ssS'bootloader'
p160
(dp161
S'extended_fuses'
p162
S'0x00'
p163
sS'high_fuses'
p164
S'0xdd'
p165
sS'low_fuses'
p166
S'0xff'
p167
sS'lock_bits'
p168
S'0x0F'
p169
sS'file'
p170
S'ATmegaBOOT_168_diecimila.hex'
p171
sS'path'
p172
S'atmega'
p173
sS'unlock_bits'
p174
S'0x3F'
p175
ssS'upload'
p176
(dp177
S'protocol'
p178
S'arduino'
p179
sS'maximum_size'
p180
S'14336'
p181
sS'speed'
p182
S'19200'
p183
ssS'name'
p184
S'Arduino Diecimila or Duemilanove w/ ATmega168'
p185
saa(lp186
S'nano328'
p187
a(dp188
S'build'
p189
(dp190
S'core'
p191
S'arduino'
p192
sS'mcu'
p193
S'atmega328p'
p194
sS'f_cpu'
p195
S'16000000L'
p196
sS'variant'
p197
S'eightanaloginputs'
p198
ssS'bootloader'
p199
(dp200
S'extended_fuses'
p201
S'0x05'
p202
sS'high_fuses'
p203
S'0xDA'
p204
sS'low_fuses'
p205
S'0xFF'
p206
sS'lock_bits'
p207
S'0x0F'
p208
sS'file'
p209
S'ATmegaBOOT_168_atmega328.hex'
p210
sS'path'
p211
S'atmega'
p212
sS'unlock_bits'
p213
S'0x3F'
p214
ssS'upload'
p215
(dp216
S'protocol'
p217
S'arduino'
p218
sS'maximum_size'
p219
S'30720'
p220
sS'speed'
p221
S'57600'
p222
ssS'name'
p223
S'Arduino Nano w/ ATmega328'
p224
saa(lp225
S'nano'
p226
a(dp227
S'build'
p228
(dp229
S'core'
p230
S'arduino'
p231
sS'mcu'
p232
S'atmega168'
p233
sS'f_cpu'
p234
S'16000000L'
p235
sS'variant'
p236
S'eightanaloginputs'
p237
ssS'bootloader'
p238
(dp239
S'extended_fuses'
p240
S'0x00'
p241
sS'high_fuses'
p242
S'0xdd'
p243
sS'low_fuses'
p244
S'0xff'
p245
sS'lock_bits'
p246
S'0x0F'
p247
sS'file'
p248
S'ATmegaBOOT_168_diecimila.hex'
p249
sS'path'
p250
S'atmega'
p251
sS'unlock_bits'
p252
S'0x3F'
p253
ssS'upload'
p254
(dp255
S'protocol'
p256
S'arduino'
p257
sS'maximum_size'
p258
S'14336'
p259
sS'speed'
p260
S'19200'
p261
ssS'name'
p262
S'Arduino Nano w/ ATmega168'
p263
saa(lp264
S'mega2560'
p265
a(dp266
S'build'
p267
(dp268
S'core'
p269
S'arduino'
p270
sS'mcu'
p271
S'atmega2560'
p272
sS'f_cpu'
p273
S'16000000L'
p274
sS'variant'
p275
S'mega'
p276
ssS'bootloader'
p277
(dp278
S'extended_fuses'
p279
S'0xFD'
p280
sS'high_fuses'
p281
S'0xD8'
p282
sS'low_fuses'
p283
S'0xFF'
p284
sS'lock_bits'
p285
S'0x0F'
p286
sS'file'
p287
S'stk500boot_v2_mega2560.hex'
p288
sS'path'
p289
S'stk500v2'
p290
sS'unlock_bits'
p291
S'0x3F'
p292
ssS'upload'
p293
(dp294
S'protocol'
p295
S'wiring'
p296
sS'maximum_size'
p297
S'258048'
p298
sS'speed'
p299
S'115200'
p300
ssS'name'
p301
S'Arduino Mega 2560 or Mega ADK'
p302
saa(lp303
S'mega'
p304
a(dp305
S'build'
p306
(dp307
S'core'
p308
S'arduino'
p309
sS'mcu'
p310
S'atmega1280'
p311
sS'f_cpu'
p312
S'16000000L'
p313
sS'variant'
p314
S'mega'
p315
ssS'bootloader'
p316
(dp317
S'extended_fuses'
p318
S'0xF5'
p319
sS'high_fuses'
p320
S'0xDA'
p321
sS'low_fuses'
p322
S'0xFF'
p323
sS'lock_bits'
p324
S'0x0F'
p325
sS'file'
p326
S'ATmegaBOOT_168_atmega1280.hex'
p327
sS'path'
p328
S'atmega'
p329
sS'unlock_bits'
p330
S'0x3F'
p331
ssS'upload'
p332
(dp333
S'protocol'
p334
S'arduino'
p335
sS'maximum_size'
p336
S'126976'
p337
sS'speed'
p338
S'57600'
p339
ssS'name'
p340
S'Arduino Mega (ATmega1280)'
p341
saa(lp342
S'leonardo'
p343
a(dp344
S'build'
p345
(dp346
S'core'
p347
S'arduino'
p348
sS'f_cpu'
p349
S'16000000L'
p350
sS'vid'
p351
S'0x2341'
p352
sS'pid'
p353
S'0x8036'
p354
sS'variant'
p355
S'leonardo'
p356
sS'mcu'
p357
S'atmega32u4'
p358
ssS'bootloader'
p359
(dp360
S'extended_fuses'
p361
S'0xcb'
p362
sS'high_fuses'
p363
S'0xd8'
p364
sS'low_fuses'
p365
S'0xff'
p366
sS'lock_bits'
p367
S'0x2F'
p368
sS'file'
p369
S'Caterina-Leonardo.hex'
p370
sS'path'
p371
S'caterina'
p372
sS'unlock_bits'
p373
S'0x3F'
p374
ssS'upload'
p375
(dp376
S'protocol'
p377
S'avr109'
p378
sS'maximum_size'
p379
S'28672'
p380
sS'speed'
p381
S'57600'
p382
sS'disable_flushing'
p383
S'true'
p384
ssS'name'
p385
S'Arduino Leonardo'
p386
saa(lp387
S'esplora'
p388
a(dp389
S'build'
p390
(dp391
S'core'
p392
S'arduino'
p393
sS'f_cpu'
p394
S'16000000L'
p395
sS'vid'
p396
S'0x2341'
p397
sS'pid'
p398
S'0x803C'
p399
sS'variant'
p400
S'leonardo'
p401
sS'mcu'
p402
S'atmega32u4'
p403
ssS'bootloader'
p404
(dp405
S'extended_fuses'
p406
S'0xcb'
p407
sS'high_fuses'
p408
S'0xd8'
p409
sS'low_fuses'
p410
S'0xff'
p411
sS'lock_bits'
p412
S'0x2F'
p413
sS'file'
p414
S'Caterina-Esplora.hex'
p415
sS'path'
p416
S'caterina'
p417
sS'unlock_bits'
p418
S'0x3F'
p419
ssS'upload'
p420
(dp421
S'protocol'
p422
S'avr109'
p423
sS'maximum_size'
p424
S'28672'
p425
sS'speed'
p426
S'57600'
p427
sS'disable_flushing'
p428
S'true'
p429
ssS'name'
p430
S'Arduino Esplora'
p431
saa(lp432
S'micro'
p433
a(dp434
S'build'
p435
(dp436
S'core'
p437
S'arduino'
p438
sS'f_cpu'
p439
S'16000000L'
p440
sS'vid'
p441
S'0x2341'
p442
sS'pid'
p443
S'0x8037'
p444
sS'variant'
p445
S'micro'
p446
sS'mcu'
p447
S'atmega32u4'
p448
ssS'bootloader'
p449
(dp450
S'extended_fuses'
p451
S'0xcb'
p452
sS'high_fuses'
p453
S'0xd8'
p454
sS'low_fuses'
p455
S'0xff'
p456
sS'lock_bits'
p457
S'0x2F'
p458
sS'file'
p459
S'Caterina-Micro.hex'
p460
sS'path'
p461
S'caterina'
p462
sS'unlock_bits'
p463
S'0x3F'
p464
ssS'upload'
p465
(dp466
S'protocol'
p467
S'avr109'
p468
sS'maximum_size'
p469
S'28672'
p470
sS'speed'
p471
S'57600'
p472
sS'disable_flushing'
p473
S'true'
p474
ssS'name'
p475
S'Arduino Micro'
p476
saa(lp477
S'mini328'
p478
a(dp479
S'build'
p480
(dp481
S'core'
p482
S'arduino'
p483
sS'mcu'
p484
S'atmega328p'
p485
sS'f_cpu'
p486
S'16000000L'
p487
sS'variant'
p488
S'eightanaloginputs'
p489
ssS'bootloader'
p490
(dp491
S'extended_fuses'
p492
S'0x05'
p493
sS'high_fuses'
p494
S'0xd8'
p495
sS'low_fuses'
p496
S'0xff'
p497
sS'lock_bits'
p498
S'0x0F'
p499
sS'file'
p500
S'optiboot_atmega328-Mini.hex'
p501
sS'path'
p502
S'optiboot'
p503
sS'unlock_bits'
p504
S'0x3F'
p505
ssS'upload'
p506
(dp507
S'protocol'
p508
S'arduino'
p509
sS'maximum_size'
p510
S'28672'
p511
sS'speed'
p512
S'115200'
p513
ssS'name'
p514
S'Arduino Mini w/ ATmega328'
p515
saa(lp516
S'mini'
p517
a(dp518
S'build'
p519
(dp520
S'core'
p521
S'arduino'
p522
sS'mcu'
p523
S'atmega168'
p524
sS'f_cpu'
p525
S'16000000L'
p526
sS'variant'
p527
S'eightanaloginputs'
p528
ssS'bootloader'
p529
(dp530
S'extended_fuses'
p531
S'0x00'
p532
sS'high_fuses'
p533
S'0xdd'
p534
sS'low_fuses'
p535
S'0xff'
p536
sS'lock_bits'
p537
S'0x0F'
p538
sS'file'
p539
S'ATmegaBOOT_168_ng.hex'
p540
sS'path'
p541
S'atmega'
p542
sS'unlock_bits'
p543
S'0x3F'
p544
ssS'upload'
p545
(dp546
S'protocol'
p547
S'arduino'
p548
sS'maximum_size'
p549
S'14336'
p550
sS'speed'
p551
S'19200'
p552
ssS'name'
p553
S'Arduino Mini w/ ATmega168'
p554
saa(lp555
S'ethernet'
p556
a(dp557
S'build'
p558
(dp559
S'variant'
p560
S'ethernet'
p561
sS'mcu'
p562
S'atmega328p'
p563
sS'f_cpu'
p564
S'16000000L'
p565
sS'core'
p566
S'arduino'
p567
ssS'bootloader'
p568
(dp569
S'extended_fuses'
p570
S'0x05'
p571
sS'high_fuses'
p572
S'0xde'
p573
sS'low_fuses'
p574
S'0xff'
p575
sS'lock_bits'
p576
S'0x0F'
p577
sS'file'
p578
S'optiboot_atmega328.hex'
p579
sS'path'
p580
S'optiboot'
p581
sS'unlock_bits'
p582
S'0x3F'
p583
ssS'upload'
p584
(dp585
S'protocol'
p586
S'arduino'
p587
sS'maximum_size'
p588
S'32256'
p589
sS'speed'
p590
S'115200'
p591
ssS'name'
p592
S'Arduino Ethernet'
p593
saa(lp594
S'fio'
p595
a(dp596
S'build'
p597
(dp598
S'core'
p599
S'arduino'
p600
sS'mcu'
p601
S'atmega328p'
p602
sS'f_cpu'
p603
S'8000000L'
p604
sS'variant'
p605
S'eightanaloginputs'
p606
ssS'bootloader'
p607
(dp608
S'extended_fuses'
p609
S'0x05'
p610
sS'high_fuses'
p611
S'0xDA'
p612
sS'low_fuses'
p613
S'0xFF'
p614
sS'lock_bits'
p615
S'0x0F'
p616
sS'file'
p617
S'ATmegaBOOT_168_atmega328_pro_8MHz.hex'
p618
sS'path'
p619
S'arduino:atmega'
p620
sS'unlock_bits'
p621
S'0x3F'
p622
ssS'upload'
p623
(dp624
S'protocol'
p625
S'arduino'
p626
sS'maximum_size'
p627
S'30720'
p628
sS'speed'
p629
S'57600'
p630
ssS'name'
p631
S'Arduino Fio'
p632
saa(lp633
S'bt328'
p634
a(dp635
S'build'
p636
(dp637
S'core'
p638
S'arduino'
p639
sS'mcu'
p640
S'atmega328p'
p641
sS'f_cpu'
p642
S'16000000L'
p643
sS'variant'
p644
S'eightanaloginputs'
p645
ssS'bootloader'
p646
(dp647
S'extended_fuses'
p648
S'0x05'
p649
sS'high_fuses'
p650
S'0xd8'
p651
sS'low_fuses'
p652
S'0xff'
p653
sS'lock_bits'
p654
S'0x0F'
p655
sS'file'
p656
S'ATmegaBOOT_168_atmega328_bt.hex'
p657
sS'path'
p658
S'bt'
p659
sS'unlock_bits'
p660
S'0x3F'
p661
ssS'upload'
p662
(dp663
S'protocol'
p664
S'arduino'
p665
sS'maximum_size'
p666
S'28672'
p667
sS'speed'
p668
S'19200'
p669
sS'disable_flushing'
p670
S'true'
p671
ssS'name'
p672
S'Arduino BT w/ ATmega328'
p673
saa(lp674
S'bt'
p675
a(dp676
S'build'
p677
(dp678
S'core'
p679
S'arduino'
p680
sS'mcu'
p681
S'atmega168'
p682
sS'f_cpu'
p683
S'16000000L'
p684
sS'variant'
p685
S'eightanaloginputs'
p686
ssS'bootloader'
p687
(dp688
S'extended_fuses'
p689
S'0x00'
p690
sS'high_fuses'
p691
S'0xdd'
p692
sS'low_fuses'
p693
S'0xff'
p694
sS'lock_bits'
p695
S'0x0F'
p696
sS'file'
p697
S'ATmegaBOOT_168.hex'
p698
sS'path'
p699
S'bt'
p700
sS'unlock_bits'
p701
S'0x3F'
p702
ssS'upload'
p703
(dp704
S'protocol'
p705
S'arduino'
p706
sS'maximum_size'
p707
S'14336'
p708
sS'speed'
p709
S'19200'
p710
sS'disable_flushing'
p711
S'true'
p712
ssS'name'
p713
S'Arduino BT w/ ATmega168'
p714
saa(lp715
S'LilyPadUSB'
p716
a(dp717
S'build'
p718
(dp719
S'core'
p720
S'arduino'
p721
sS'f_cpu'
p722
S'8000000L'
p723
sS'vid'
p724
S'0x1B4F'
p725
sS'pid'
p726
S'0x9208'
p727
sS'variant'
p728
S'leonardo'
p729
sS'mcu'
p730
S'atmega32u4'
p731
ssS'bootloader'
p732
(dp733
S'extended_fuses'
p734
S'0xce'
p735
sS'high_fuses'
p736
S'0xd8'
p737
sS'low_fuses'
p738
S'0xff'
p739
sS'lock_bits'
p740
S'0x2F'
p741
sS'file'
p742
S'Caterina-LilyPadUSB.hex'
p743
sS'path'
p744
S'caterina-LilyPadUSB'
p745
sS'unlock_bits'
p746
S'0x3F'
p747
ssS'upload'
p748
(dp749
S'protocol'
p750
S'avr109'
p751
sS'maximum_size'
p752
S'28672'
p753
sS'speed'
p754
S'57600'
p755
sS'disable_flushing'
p756
S'true'
p757
ssS'name'
p758
S'LilyPad Arduino USB'
p759
saa(lp760
S'lilypad328'
p761
a(dp762
S'build'
p763
(dp764
S'core'
p765
S'arduino'
p766
sS'mcu'
p767
S'atmega328p'
p768
sS'f_cpu'
p769
S'8000000L'
p770
sS'variant'
p771
S'standard'
p772
ssS'bootloader'
p773
(dp774
S'extended_fuses'
p775
S'0x05'
p776
sS'high_fuses'
p777
S'0xDA'
p778
sS'low_fuses'
p779
S'0xFF'
p780
sS'lock_bits'
p781
S'0x0F'
p782
sS'file'
p783
S'ATmegaBOOT_168_atmega328_pro_8MHz.hex'
p784
sS'path'
p785
S'atmega'
p786
sS'unlock_bits'
p787
S'0x3F'
p788
ssS'upload'
p789
(dp790
S'protocol'
p791
S'arduino'
p792
sS'maximum_size'
p793
S'30720'
p794
sS'speed'
p795
S'57600'
p796
ssS'name'
p797
S'LilyPad Arduino w/ ATmega328'
p798
saa(lp799
S'lilypad'
p800
a(dp801
S'build'
p802
(dp803
S'core'
p804
S'arduino'
p805
sS'mcu'
p806
S'atmega168'
p807
sS'f_cpu'
p808
S'8000000L'
p809
sS'variant'
p810
S'standard'
p811
ssS'bootloader'
p812
(dp813
S'extended_fuses'
p814
S'0x00'
p815
sS'high_fuses'
p816
S'0xdd'
p817
sS'low_fuses'
p818
S'0xe2'
p819
sS'lock_bits'
p820
S'0x0F'
p821
sS'file'
p822
S'LilyPadBOOT_168.hex'
p823
sS'path'
p824
S'lilypad'
p825
sS'unlock_bits'
p826
S'0x3F'
p827
ssS'upload'
p828
(dp829
S'protocol'
p830
S'arduino'
p831
sS'maximum_size'
p832
S'14336'
p833
sS'speed'
p834
S'19200'
p835
ssS'name'
p836
S'LilyPad Arduino w/ ATmega168'
p837
saa(lp838
S'pro5v328'
p839
a(dp840
S'build'
p841
(dp842
S'core'
p843
S'arduino'
p844
sS'mcu'
p845
S'atmega328p'
p846
sS'f_cpu'
p847
S'16000000L'
p848
sS'variant'
p849
S'standard'
p850
ssS'bootloader'
p851
(dp852
S'extended_fuses'
p853
S'0x05'
p854
sS'high_fuses'
p855
S'0xDA'
p856
sS'low_fuses'
p857
S'0xFF'
p858
sS'lock_bits'
p859
S'0x0F'
p860
sS'file'
p861
S'ATmegaBOOT_168_atmega328.hex'
p862
sS'path'
p863
S'atmega'
p864
sS'unlock_bits'
p865
S'0x3F'
p866
ssS'upload'
p867
(dp868
S'protocol'
p869
S'arduino'
p870
sS'maximum_size'
p871
S'30720'
p872
sS'speed'
p873
S'57600'
p874
ssS'name'
p875
S'Arduino Pro or Pro Mini (5V, 16 MHz) w/ ATmega328'
p876
saa(lp877
S'pro5v'
p878
a(dp879
S'build'
p880
(dp881
S'core'
p882
S'arduino'
p883
sS'mcu'
p884
S'atmega168'
p885
sS'f_cpu'
p886
S'16000000L'
p887
sS'variant'
p888
S'standard'
p889
ssS'bootloader'
p890
(dp891
S'extended_fuses'
p892
S'0x00'
p893
sS'high_fuses'
p894
S'0xdd'
p895
sS'low_fuses'
p896
S'0xff'
p897
sS'lock_bits'
p898
S'0x0F'
p899
sS'file'
p900
S'ATmegaBOOT_168_diecimila.hex'
p901
sS'path'
p902
S'atmega'
p903
sS'unlock_bits'
p904
S'0x3F'
p905
ssS'upload'
p906
(dp907
S'protocol'
p908
S'arduino'
p909
sS'maximum_size'
p910
S'14336'
p911
sS'speed'
p912
S'19200'
p913
ssS'name'
p914
S'Arduino Pro or Pro Mini (5V, 16 MHz) w/ ATmega168'
p915
saa(lp916
S'pro328'
p917
a(dp918
S'build'
p919
(dp920
S'core'
p921
S'arduino'
p922
sS'mcu'
p923
S'atmega328p'
p924
sS'f_cpu'
p925
S'8000000L'
p926
sS'variant'
p927
S'standard'
p928
ssS'bootloader'
p929
(dp930
S'extended_fuses'
p931
S'0x05'
p932
sS'high_fuses'
p933
S'0xDA'
p934
sS'low_fuses'
p935
S'0xFF'
p936
sS'lock_bits'
p937
S'0x0F'
p938
sS'file'
p939
S'ATmegaBOOT_168_atmega328_pro_8MHz.hex'
p940
sS'path'
p941
S'atmega'
p942
sS'unlock_bits'
p943
S'0x3F'
p944
ssS'upload'
p945
(dp946
S'protocol'
p947
S'arduino'
p948
sS'maximum_size'
p949
S'30720'
p950
sS'speed'
p951
S'57600'
p952
ssS'name'
p953
S'Arduino Pro or Pro Mini (3.3V, 8 MHz) w/ ATmega328'
p954
saa(lp955
S'pro'
p956
a(dp957
S'build'
p958
(dp959
S'core'
p960
S'arduino'
p961
sS'mcu'
p962
S'atmega168'
p963
sS'f_cpu'
p964
S'8000000L'
p965
sS'variant'
p966
S'standard'
p967
ssS'bootloader'
p968
(dp969
S'extended_fuses'
p970
S'0x00'
p971
sS'high_fuses'
p972
S'0xdd'
p973
sS'low_fuses'
p974
S'0xc6'
p975
sS'lock_bits'
p976
S'0x0F'
p977
sS'file'
p978
S'ATmegaBOOT_168_pro_8MHz.hex'
p979
sS'path'
p980
S'atmega'
p981
sS'unlock_bits'
p982
S'0x3F'
p983
ssS'upload'
p984
(dp985
S'protocol'
p986
S'arduino'
p987
sS'maximum_size'
p988
S'14336'
p989
sS'speed'
p990
S'19200'
p991
ssS'name'
p992
S'Arduino Pro or Pro Mini (3.3V, 8 MHz) w/ ATmega168'
p993
saa(lp994
S'atmega168'
p995
a(dp996
S'build'
p997
(dp998
S'core'
p999
S'arduino'
p1000
sS'mcu'
p1001
S'atmega168'
p1002
sS'f_cpu'
p1003
S'16000000L'
p1004
sS'variant'
p1005
S'standard'
p1006
ssS'bootloader'
p1007
(dp1008
S'extended_fuses'
p1009
S'0x00'
p1010
sS'high_fuses'
p1011
S'0xdd'
p1012
sS'low_fuses'
p1013
S'0xff'
p1014
sS'lock_bits'
p1015
S'0x0F'
p1016
sS'file'
p1017
S'ATmegaBOOT_168_ng.hex'
p1018
sS'path'
p1019
S'atmega'
p1020
sS'unlock_bits'
p1021
S'0x3F'
p1022
ssS'upload'
p1023
(dp1024
S'protocol'
p1025
S'arduino'
p1026
sS'maximum_size'
p1027
S'14336'
p1028
sS'speed'
p1029
S'19200'
p1030
ssS'name'
p1031
S'Arduino NG or older w/ ATmega168'
p1032
saa(lp1033
S'atmega8'
p1034
a(dp1035
S'build'
p1036
(dp1037
S'core'
p1038
S'arduino'
p1039
sS'mcu'
p1040
S'atmega8'
p1041
sS'f_cpu'
p1042
S'16000000L'
p1043
sS'variant'
p1044
S'standard'
p1045
ssS'bootloader'
p1046
(dp1047
S'high_fuses'
p1048
S'0xca'
p1049
sS'low_fuses'
p1050
S'0xdf'
p1051
sS'lock_bits'
p1052
S'0x0F'
p1053
sS'file'
p1054
S'ATmegaBOOT-prod-firmware-2009-11-07.hex'
p1055
sS'path'
p1056
S'atmega8'
p1057
sS'unlock_bits'
p1058
S'0x3F'
p1059
ssS'upload'
p1060
(dp1061
S'protocol'
p1062
S'arduino'
p1063
sS'maximum_size'
p1064
S'7168'
p1065
sS'speed'
p1066
S'19200'
p1067
ssS'name'
p1068
S'Arduino NG or older w/ ATmega8'
p1069
saa(lp1070
S'robotControl'
p1071
a(dp1072
S'build'
p1073
(dp1074
S'core'
p1075
S'robot'
p1076
sS'f_cpu'
p1077
S'16000000L'
p1078
sS'vid'
p1079
S'0x2341'
p1080
sS'pid'
p1081
S'0x8038'
p1082
sS'variant'
p1083
S'robot_control'
p1084
sS'mcu'
p1085
S'atmega32u4'
p1086
ssS'bootloader'
p1087
(dp1088
S'extended_fuses'
p1089
S'0xcb'
p1090
sS'high_fuses'
p1091
S'0xd8'
p1092
sS'low_fuses'
p1093
S'0xff'
p1094
sS'lock_bits'
p1095
S'0x2F'
p1096
sS'file'
p1097
S'Caterina-Robot-Control.hex'
p1098
sS'path'
p1099
S'caterina-Arduino_Robot'
p1100
sS'unlock_bits'
p1101
S'0x3F'
p1102
ssS'upload'
p1103
(dp1104
S'protocol'
p1105
S'avr109'
p1106
sS'maximum_size'
p1107
S'28672'
p1108
sS'speed'
p1109
S'57600'
p1110
sS'disable_flushing'
p1111
S'true'
p1112
ssS'name'
p1113
S'Arduino Robot Control'
p1114
saa(lp1115
S'robotMotor'
p1116
a(dp1117
S'build'
p1118
(dp1119
S'core'
p1120
S'robot'
p1121
sS'f_cpu'
p1122
S'16000000L'
p1123
sS'vid'
p1124
S'0x2341'
p1125
sS'pid'
p1126
S'0x8039'
p1127
sS'variant'
p1128
S'robot_motor'
p1129
sS'mcu'
p1130
S'atmega32u4'
p1131
ssS'bootloader'
p1132
(dp1133
S'extended_fuses'
p1134
S'0xcb'
p1135
sS'high_fuses'
p1136
S'0xd8'
p1137
sS'low_fuses'
p1138
S'0xff'
p1139
sS'lock_bits'
p1140
S'0x2F'
p1141
sS'file'
p1142
S'Caterina-Robot-Motor.hex'
p1143
sS'path'
p1144
S'caterina-Arduino_Robot'
p1145
sS'unlock_bits'
p1146
S'0x3F'
p1147
ssS'upload'
p1148
(dp1149
S'protocol'
p1150
S'avr109'
p1151
sS'maximum_size'
p1152
S'28672'
p1153
sS'speed'
p1154
S'57600'
p1155
sS'disable_flushing'
p1156
S'true'
p1157
ssS'name'
p1158
S'Arduino Robot Motor'
p1159
saatp1160
Rp1161
(dp1162
S'default'
p1163
S'uno'
p1164
sbtp1165
a(S'used_libs'
p1166
(lp1167
S'lib/keypad'
p1168
aS'lib/grove'
p1169
aS'/usr/local/share/arduino/libraries/Wire'
p1170
aS'/usr/local/share/arduino/hardware/arduino/cores/arduino'
p1171
atp1172
a(S'make'
p1173
S'/usr/bin/make'
p1174
tp1175
a(S'arduino_libraries_dir'
p1176
S'/usr/local/share/arduino/libraries'
p1177
tp1178
a(S'cc'
p1179
S'/usr/local/share/arduino/hardware/tools/avr/bin/avr-gcc'
p1180
tp1181
a(S'cflags'
p1182
g2
(g3
g4
(lp1183
tp1184
Rp1185
tp1186
a(S'cxxflags'
p1187
g2
(g3
g4
(lp1188
S'-fno-exceptions'
p1189
atp1190
Rp1191
tp1192
a(S'arduino_variants_dir'
p1193
S'/usr/local/share/arduino/hardware/arduino/variants'
p1194
tp1195
a(S'serial'
p1196
S'/usr/bin/picocom'
p1197
tp1198
a(S'stty'
p1199
S'/bin/stty'
p1200
tp1201
a(S'version.txt'
p1202
S'/usr/local/share/arduino/lib/version.txt'
p1203
tp1204
a(S'arduino_core_dir'
p1205
g1171
tp1206
a(S'boards.txt'
p1207
S'/usr/local/share/arduino/hardware/arduino/boards.txt'
p1208
tp1209
a(S'avrdude.conf'
p1210
S'/usr/local/share/arduino/hardware/tools/avrdude.conf'
p1211
tp1212
a(S'deps'
p1213
g2
(g3
g4
(lp1214
S'.build/uno/src/dependencies.d'
p1215
aS'.build/uno/Wire/dependencies.d'
p1216
aS'.build/uno/keypad/dependencies.d'
p1217
aS'.build/uno/grove/dependencies.d'
p1218
aS'.build/uno/arduino/dependencies.d'
p1219
atp1220
Rp1221
tp1222
a.